target datalayout = "e-m:e-p270:32:32-p271:32:32-p272:64:64-i64:64-i128:128-f80:128-n8:16:32:64-S128"
target triple = "x86_64-pc-linux-gnu"

; Function Attrs: inlinehint mustprogress uwtable
define linkonce_odr dso_local void @_ZN4absl13base_internal13TraceObservedEPKvNS0_10ObjectKindE(ptr noundef %0, i32 noundef %1) #8 comdat {
  %3 = alloca ptr, align 8
  %4 = alloca i32, align 4
  store ptr %0, ptr %3, align 8, !tbaa !24
  store i32 %1, ptr %4, align 4, !tbaa !42
  %5 = load ptr, ptr %3, align 8, !tbaa !24
  %6 = load i32, ptr %4, align 4, !tbaa !42
  call void @AbslInternalTraceObserved(ptr noundef %5, i32 noundef %6)
  ret void
}

; Function Attrs: inlinehint mustprogress uwtable
define linkonce_odr dso_local void @_ZN4absl13base_internal11TraceSignalEPKvNS0_10ObjectKindE(ptr noundef %0, i32 noundef %1) #8 comdat {
  %3 = alloca ptr, align 8
  %4 = alloca i32, align 4
  store ptr %0, ptr %3, align 8, !tbaa !24
  store i32 %1, ptr %4, align 4, !tbaa !42
  %5 = load ptr, ptr %3, align 8, !tbaa !24
  %6 = load i32, ptr %4, align 4, !tbaa !42
  call void @AbslInternalTraceSignal(ptr noundef %5, i32 noundef %6)
  ret void
}

; Function Attrs: inlinehint mustprogress uwtable
define linkonce_odr dso_local void @_ZN4absl13base_internal13TraceContinueEPKvNS0_10ObjectKindE(ptr noundef %0, i32 noundef %1) #8 comdat {
  %3 = alloca ptr, align 8
  %4 = alloca i32, align 4
  store ptr %0, ptr %3, align 8, !tbaa !24
  store i32 %1, ptr %4, align 4, !tbaa !42
  %5 = load ptr, ptr %3, align 8, !tbaa !24
  %6 = load i32, ptr %4, align 4, !tbaa !42
  call void @AbslInternalTraceContinue(ptr noundef %5, i32 noundef %6)
  ret void
}

; Function Attrs: inlinehint mustprogress uwtable
define linkonce_odr dso_local void @_ZN4absl13base_internal9TraceWaitEPKvNS0_10ObjectKindE(ptr noundef %0, i32 noundef %1) #8 comdat {
  %3 = alloca ptr, align 8
  %4 = alloca i32, align 4
  store ptr %0, ptr %3, align 8, !tbaa !24
  store i32 %1, ptr %4, align 4, !tbaa !42
  %5 = load ptr, ptr %3, align 8, !tbaa !24
  %6 = load i32, ptr %4, align 4, !tbaa !42
  call void @AbslInternalTraceWait(ptr noundef %5, i32 noundef %6)
  ret void
}

; Function Attrs: mustprogress uwtable
define internal void @_ZN12_GLOBAL__N_145TracingInternal_HasDefaultImplementation_Test8TestBodyEv(ptr noundef nonnull align 8 dereferenceable(16) %0) unnamed_addr #6 align 2 {
  %2 = alloca ptr, align 8
  %3 = alloca i32, align 4
  %4 = alloca i32, align 4
  store ptr %0, ptr %2, align 8, !tbaa !40
  call void @llvm.lifetime.start.p0(i64 4, ptr %3) #3
  store i32 0, ptr %3, align 4, !tbaa !42
  %5 = load i32, ptr %3, align 4, !tbaa !42
  call void @_ZN4absl13base_internal9TraceWaitEPKvNS0_10ObjectKindE(ptr noundef null, i32 noundef %5)
  %6 = load i32, ptr %3, align 4, !tbaa !42
  call void @_ZN4absl13base_internal13TraceContinueEPKvNS0_10ObjectKindE(ptr noundef null, i32 noundef %6)
  %7 = load i32, ptr %3, align 4, !tbaa !42
  call void @_ZN4absl13base_internal11TraceSignalEPKvNS0_10ObjectKindE(ptr noundef null, i32 noundef %7)
  %8 = load i32, ptr %3, align 4, !tbaa !42
  call void @_ZN4absl13base_internal13TraceObservedEPKvNS0_10ObjectKindE(ptr noundef null, i32 noundef %8)
  call void @llvm.lifetime.start.p0(i64 4, ptr %4) #3
  store i32 0, ptr %4, align 4, !tbaa !17
  %9 = load i32, ptr %3, align 4, !tbaa !42
  call void @_ZN4absl13base_internal9TraceWaitEPKvNS0_10ObjectKindE(ptr noundef %4, i32 noundef %9)
  %10 = load i32, ptr %3, align 4, !tbaa !42
  call void @_ZN4absl13base_internal13TraceContinueEPKvNS0_10ObjectKindE(ptr noundef %4, i32 noundef %10)
  %11 = load i32, ptr %3, align 4, !tbaa !42
  call void @_ZN4absl13base_internal11TraceSignalEPKvNS0_10ObjectKindE(ptr noundef %4, i32 noundef %11)
  %12 = load i32, ptr %3, align 4, !tbaa !42
  call void @_ZN4absl13base_internal13TraceObservedEPKvNS0_10ObjectKindE(ptr noundef %4, i32 noundef %12)
  call void @llvm.lifetime.end.p0(i64 4, ptr %4) #3
  call void @llvm.lifetime.end.p0(i64 4, ptr %3) #3
  ret void
}