; Function Attrs: mustprogress uwtable
define internal void @_ZN12_GLOBAL__N_145TracingInternal_HasDefaultImplementation_Test8TestBodyEv(ptr nonnull readnone align 8 captures(none) %0) unnamed_addr #4 align 2 {
  %2 = alloca i32, align 4
  tail call void @AbslInternalTraceWait(ptr noundef null, i32 noundef 0)
  tail call void @AbslInternalTraceContinue(ptr noundef null, i32 noundef 0)
  tail call void @AbslInternalTraceSignal(ptr noundef null, i32 noundef 0)
  tail call void @AbslInternalTraceObserved(ptr noundef null, i32 noundef 0)
  call void @llvm.lifetime.start.p0(i64 4, ptr nonnull %2) #13
  store i32 0, ptr %2, align 4, !tbaa !20
  call void @AbslInternalTraceWait(ptr noundef nonnull %2, i32 noundef 0)
  call void @AbslInternalTraceContinue(ptr noundef nonnull %2, i32 noundef 0)
  call void @AbslInternalTraceSignal(ptr noundef nonnull %2, i32 noundef 0)
  call void @AbslInternalTraceObserved(ptr noundef nonnull %2, i32 noundef 0)
  call void @llvm.lifetime.end.p0(i64 4, ptr nonnull %2) #13
  ret void
}